; ModuleID = 'source-C-CXX/11/591.cpp'
source_filename = "source-C-CXX/11/591.cpp"
target datalayout = "e-m:e-p270:32:32-p271:32:32-p272:64:64-i64:64-f80:128-n8:16:32:64-S128"
target triple = "x86_64-pc-linux-gnu"

%"class.std::ios_base::Init" = type { i8 }
%"class.std::basic_istream" = type { i32 (...)**, i64, %"class.std::basic_ios" }
%"class.std::basic_ios" = type { %"class.std::ios_base", %"class.std::basic_ostream"*, i8, i8, %"class.std::basic_streambuf"*, %"class.std::ctype"*, %"class.std::num_put"*, %"class.std::num_get"* }
%"class.std::ios_base" = type { i32 (...)**, i64, i64, i32, i32, i32, %"struct.std::ios_base::_Callback_list"*, %"struct.std::ios_base::_Words", [8 x %"struct.std::ios_base::_Words"], i32, %"struct.std::ios_base::_Words"*, %"class.std::locale" }
%"struct.std::ios_base::_Callback_list" = type { %"struct.std::ios_base::_Callback_list"*, void (i32, %"class.std::ios_base"*, i32)*, i32, i32 }
%"struct.std::ios_base::_Words" = type { i8*, i64 }
%"class.std::locale" = type { %"class.std::locale::_Impl"* }
%"class.std::locale::_Impl" = type { i32, %"class.std::locale::facet"**, i64, %"class.std::locale::facet"**, i8** }
%"class.std::locale::facet" = type <{ i32 (...)**, i32, [4 x i8] }>
%"class.std::basic_ostream" = type { i32 (...)**, %"class.std::basic_ios" }
%"class.std::basic_streambuf" = type { i32 (...)**, i8*, i8*, i8*, i8*, i8*, i8*, %"class.std::locale" }
%"class.std::ctype" = type <{ %"class.std::locale::facet.base", [4 x i8], %struct.__locale_struct*, i8, [7 x i8], i32*, i32*, i16*, i8, [256 x i8], [256 x i8], i8, [6 x i8] }>
%"class.std::locale::facet.base" = type <{ i32 (...)**, i32 }>
%struct.__locale_struct = type { [13 x %struct.__locale_data*], i16*, i32*, i32*, [13 x i8*] }
%struct.__locale_data = type opaque
%"class.std::num_put" = type { %"class.std::locale::facet.base", [4 x i8] }
%"class.std::num_get" = type { %"class.std::locale::facet.base", [4 x i8] }

@_ZStL8__ioinit = internal global %"class.std::ios_base::Init" zeroinitializer, align 1
@__dso_handle = external hidden global i8
@_ZSt3cin = external global %"class.std::basic_istream", align 8
@_ZSt4cout = external global %"class.std::basic_ostream", align 8
@llvm.global_ctors = appending global [1 x { i32, void ()*, i8* }] [{ i32, void ()*, i8* } { i32 65535, void ()* @_GLOBAL__sub_I_591.cpp, i8* null }]

declare void @_ZNSt8ios_base4InitC1Ev(%"class.std::ios_base::Init"* nonnull align 1 dereferenceable(1)) unnamed_addr #0

; Function Attrs: nounwind
declare void @_ZNSt8ios_base4InitD1Ev(%"class.std::ios_base::Init"* nonnull align 1 dereferenceable(1)) unnamed_addr #1

; Function Attrs: nofree nounwind
declare i32 @__cxa_atexit(void (i8*)*, i8*, i8*) local_unnamed_addr #2

; Function Attrs: mustprogress norecurse sspstrong uwtable
define dso_local i32 @main() local_unnamed_addr #3 {
  %1 = alloca [16 x i32], align 16
  %2 = bitcast [16 x i32]* %1 to i8*
  call void @llvm.lifetime.start.p0i8(i64 64, i8* nonnull %2) #8
  %3 = getelementptr inbounds [16 x i32], [16 x i32]* %1, i64 0, i64 0
  %4 = getelementptr inbounds [16 x i32], [16 x i32]* %1, i64 0, i64 4
  %5 = getelementptr inbounds [16 x i32], [16 x i32]* %1, i64 0, i64 8
  %6 = getelementptr inbounds [16 x i32], [16 x i32]* %1, i64 0, i64 12
  %7 = bitcast [16 x i32]* %1 to <4 x i32>*
  %8 = bitcast i32* %4 to <4 x i32>*
  %9 = bitcast i32* %5 to <4 x i32>*
  %10 = bitcast i32* %6 to <4 x i32>*
  br label %11

11:                                               ; preds = %110, %0
  store <4 x i32> <i32 1, i32 1, i32 1, i32 1>, <4 x i32>* %7, align 16, !tbaa !5
  store <4 x i32> <i32 1, i32 1, i32 1, i32 1>, <4 x i32>* %8, align 16, !tbaa !5
  store <4 x i32> <i32 1, i32 1, i32 1, i32 1>, <4 x i32>* %9, align 16, !tbaa !5
  store <4 x i32> <i32 1, i32 1, i32 1, i32 1>, <4 x i32>* %10, align 16, !tbaa !5
  br label %12

12:                                               ; preds = %11, %18
  %13 = phi i64 [ 0, %11 ], [ %19, %18 ]
  %14 = getelementptr inbounds [16 x i32], [16 x i32]* %1, i64 0, i64 %13
  %15 = call nonnull align 8 dereferenceable(16) %"class.std::basic_istream"* @_ZNSirsERi(%"class.std::basic_istream"* nonnull align 8 dereferenceable(16) @_ZSt3cin, i32* nonnull align 4 dereferenceable(4) %14)
  %16 = load i32, i32* %3, align 16, !tbaa !5
  %17 = icmp eq i32 %16, -1
  br i1 %17, label %116, label %18

18:                                               ; preds = %12
  %19 = add nuw i64 %13, 1
  %20 = load i32, i32* %14, align 4, !tbaa !5
  %21 = icmp eq i32 %20, 0
  br i1 %21, label %22, label %12, !llvm.loop !9

22:                                               ; preds = %18
  %23 = add i64 %13, 1
  %24 = and i64 %23, 4294967295
  %25 = icmp ult i64 %24, 8
  %26 = and i64 %23, 7
  %27 = sub nsw i64 %24, %26
  %28 = icmp eq i64 %26, 0
  br label %29

29:                                               ; preds = %80, %22
  %30 = phi i32 [ %16, %22 ], [ %82, %80 ]
  %31 = phi i64 [ 0, %22 ], [ %78, %80 ]
  %32 = phi i32 [ -1, %22 ], [ %77, %80 ]
  br i1 %25, label %62, label %33

33:                                               ; preds = %29
  %34 = insertelement <4 x i32> <i32 poison, i32 0, i32 0, i32 0>, i32 %32, i32 0
  %35 = insertelement <4 x i32> poison, i32 %30, i32 0
  %36 = shufflevector <4 x i32> %35, <4 x i32> poison, <4 x i32> zeroinitializer
  %37 = insertelement <4 x i32> poison, i32 %30, i32 0
  %38 = shufflevector <4 x i32> %37, <4 x i32> poison, <4 x i32> zeroinitializer
  br label %39

39:                                               ; preds = %39, %33
  %40 = phi i64 [ 0, %33 ], [ %57, %39 ]
  %41 = phi <4 x i32> [ %34, %33 ], [ %55, %39 ]
  %42 = phi <4 x i32> [ zeroinitializer, %33 ], [ %56, %39 ]
  %43 = getelementptr inbounds [16 x i32], [16 x i32]* %1, i64 0, i64 %40
  %44 = bitcast i32* %43 to <4 x i32>*
  %45 = load <4 x i32>, <4 x i32>* %44, align 16, !tbaa !5
  %46 = getelementptr inbounds i32, i32* %43, i64 4
  %47 = bitcast i32* %46 to <4 x i32>*
  %48 = load <4 x i32>, <4 x i32>* %47, align 16, !tbaa !5
  %49 = shl nsw <4 x i32> %45, <i32 1, i32 1, i32 1, i32 1>
  %50 = shl nsw <4 x i32> %48, <i32 1, i32 1, i32 1, i32 1>
  %51 = icmp eq <4 x i32> %36, %49
  %52 = icmp eq <4 x i32> %38, %50
  %53 = zext <4 x i1> %51 to <4 x i32>
  %54 = zext <4 x i1> %52 to <4 x i32>
  %55 = add <4 x i32> %41, %53
  %56 = add <4 x i32> %42, %54
  %57 = add nuw i64 %40, 8
  %58 = icmp eq i64 %57, %27
  br i1 %58, label %59, label %39, !llvm.loop !11

59:                                               ; preds = %39
  %60 = add <4 x i32> %56, %55
  %61 = call i32 @llvm.vector.reduce.add.v4i32(<4 x i32> %60)
  br i1 %28, label %76, label %62

62:                                               ; preds = %29, %59
  %63 = phi i64 [ 0, %29 ], [ %27, %59 ]
  %64 = phi i32 [ %32, %29 ], [ %61, %59 ]
  br label %65

65:                                               ; preds = %62, %65
  %66 = phi i64 [ %74, %65 ], [ %63, %62 ]
  %67 = phi i32 [ %73, %65 ], [ %64, %62 ]
  %68 = getelementptr inbounds [16 x i32], [16 x i32]* %1, i64 0, i64 %66
  %69 = load i32, i32* %68, align 4, !tbaa !5
  %70 = shl nsw i32 %69, 1
  %71 = icmp eq i32 %30, %70
  %72 = zext i1 %71 to i32
  %73 = add nsw i32 %67, %72
  %74 = add nuw nsw i64 %66, 1
  %75 = icmp eq i64 %74, %24
  br i1 %75, label %76, label %65, !llvm.loop !13

76:                                               ; preds = %65, %59
  %77 = phi i32 [ %61, %59 ], [ %73, %65 ]
  %78 = add nuw nsw i64 %31, 1
  %79 = icmp eq i64 %78, %24
  br i1 %79, label %83, label %80, !llvm.loop !15

80:                                               ; preds = %76
  %81 = getelementptr inbounds [16 x i32], [16 x i32]* %1, i64 0, i64 %78
  %82 = load i32, i32* %81, align 4, !tbaa !5
  br label %29

83:                                               ; preds = %76
  %84 = call nonnull align 8 dereferenceable(8) %"class.std::basic_ostream"* @_ZNSolsEi(%"class.std::basic_ostream"* nonnull align 8 dereferenceable(8) @_ZSt4cout, i32 %77)
  %85 = bitcast %"class.std::basic_ostream"* %84 to i8**
  %86 = load i8*, i8** %85, align 8, !tbaa !16
  %87 = getelementptr i8, i8* %86, i64 -24
  %88 = bitcast i8* %87 to i64*
  %89 = load i64, i64* %88, align 8
  %90 = bitcast %"class.std::basic_ostream"* %84 to i8*
  %91 = add nsw i64 %89, 240
  %92 = getelementptr inbounds i8, i8* %90, i64 %91
  %93 = bitcast i8* %92 to %"class.std::ctype"**
  %94 = load %"class.std::ctype"*, %"class.std::ctype"** %93, align 8, !tbaa !18
  %95 = icmp eq %"class.std::ctype"* %94, null
  br i1 %95, label %96, label %97

96:                                               ; preds = %83
  call void @_ZSt16__throw_bad_castv() #9
  unreachable

97:                                               ; preds = %83
  %98 = getelementptr inbounds %"class.std::ctype", %"class.std::ctype"* %94, i64 0, i32 8
  %99 = load i8, i8* %98, align 8, !tbaa !22
  %100 = icmp eq i8 %99, 0
  br i1 %100, label %104, label %101

101:                                              ; preds = %97
  %102 = getelementptr inbounds %"class.std::ctype", %"class.std::ctype"* %94, i64 0, i32 9, i64 10
  %103 = load i8, i8* %102, align 1, !tbaa !24
  br label %110

104:                                              ; preds = %97
  call void @_ZNKSt5ctypeIcE13_M_widen_initEv(%"class.std::ctype"* nonnull align 8 dereferenceable(570) %94)
  %105 = bitcast %"class.std::ctype"* %94 to i8 (%"class.std::ctype"*, i8)***
  %106 = load i8 (%"class.std::ctype"*, i8)**, i8 (%"class.std::ctype"*, i8)*** %105, align 8, !tbaa !16
  %107 = getelementptr inbounds i8 (%"class.std::ctype"*, i8)*, i8 (%"class.std::ctype"*, i8)** %106, i64 6
  %108 = load i8 (%"class.std::ctype"*, i8)*, i8 (%"class.std::ctype"*, i8)** %107, align 8
  %109 = call signext i8 %108(%"class.std::ctype"* nonnull align 8 dereferenceable(570) %94, i8 signext 10)
  br label %110

110:                                              ; preds = %101, %104
  %111 = phi i8 [ %103, %101 ], [ %109, %104 ]
  %112 = call nonnull align 8 dereferenceable(8) %"class.std::basic_ostream"* @_ZNSo3putEc(%"class.std::basic_ostream"* nonnull align 8 dereferenceable(8) %84, i8 signext %111)
  %113 = call nonnull align 8 dereferenceable(8) %"class.std::basic_ostream"* @_ZNSo5flushEv(%"class.std::basic_ostream"* nonnull align 8 dereferenceable(8) %112)
  %114 = load i32, i32* %3, align 16, !tbaa !5
  %115 = icmp eq i32 %114, -1
  br i1 %115, label %116, label %11, !llvm.loop !25

116:                                              ; preds = %110, %12
  call void @llvm.lifetime.end.p0i8(i64 64, i8* nonnull %2) #8
  ret i32 0
}

; Function Attrs: argmemonly mustprogress nofree nosync nounwind willreturn
declare void @llvm.lifetime.start.p0i8(i64 immarg, i8* nocapture) #4

declare nonnull align 8 dereferenceable(16) %"class.std::basic_istream"* @_ZNSirsERi(%"class.std::basic_istream"* nonnull align 8 dereferenceable(16), i32* nonnull align 4 dereferenceable(4)) local_unnamed_addr #0

declare nonnull align 8 dereferenceable(8) %"class.std::basic_ostream"* @_ZNSolsEi(%"class.std::basic_ostream"* nonnull align 8 dereferenceable(8), i32) local_unnamed_addr #0

; Function Attrs: argmemonly mustprogress nofree nosync nounwind willreturn
declare void @llvm.lifetime.end.p0i8(i64 immarg, i8* nocapture) #4

declare nonnull align 8 dereferenceable(8) %"class.std::basic_ostream"* @_ZNSo3putEc(%"class.std::basic_ostream"* nonnull align 8 dereferenceable(8), i8 signext) local_unnamed_addr #0

declare nonnull align 8 dereferenceable(8) %"class.std::basic_ostream"* @_ZNSo5flushEv(%"class.std::basic_ostream"* nonnull align 8 dereferenceable(8)) local_unnamed_addr #0

; Function Attrs: noreturn
declare void @_ZSt16__throw_bad_castv() local_unnamed_addr #5

declare void @_ZNKSt5ctypeIcE13_M_widen_initEv(%"class.std::ctype"* nonnull align 8 dereferenceable(570)) local_unnamed_addr #0

; Function Attrs: sspstrong uwtable
define internal void @_GLOBAL__sub_I_591.cpp() #6 section ".text.startup" {
  tail call void @_ZNSt8ios_base4InitC1Ev(%"class.std::ios_base::Init"* nonnull align 1 dereferenceable(1) @_ZStL8__ioinit)
  %1 = tail call i32 @__cxa_atexit(void (i8*)* bitcast (void (%"class.std::ios_base::Init"*)* @_ZNSt8ios_base4InitD1Ev to void (i8*)*), i8* getelementptr inbounds (%"class.std::ios_base::Init", %"class.std::ios_base::Init"* @_ZStL8__ioinit, i64 0, i32 0), i8* nonnull @__dso_handle) #8
  ret void
}

; Function Attrs: nofree nosync nounwind readnone willreturn
declare i32 @llvm.vector.reduce.add.v4i32(<4 x i32>) #7


!llvm.module.flags = !{!0, !1, !2, !3}
!llvm.ident = !{!4}

!0 = !{i32 1, !"wchar_size", i32 4}
!1 = !{i32 7, !"PIC Level", i32 2}
!2 = !{i32 7, !"PIE Level", i32 2}
!3 = !{i32 7, !"uwtable", i32 1}
!4 = !{!"clang version 13.0.0"}
!5 = !{!6, !6, i64 0}
!6 = !{!"int", !7, i64 0}
!7 = !{!"omnipotent char", !8, i64 0}
!8 = !{!"Simple C++ TBAA"}
!9 = distinct !{!9, !10}
!10 = !{!"llvm.loop.mustprogress"}
!11 = distinct !{!11, !10, !12}
!12 = !{!"llvm.loop.isvectorized", i32 1}
!13 = distinct !{!13, !10, !14, !12}
!14 = !{!"llvm.loop.unroll.runtime.disable"}
!15 = distinct !{!15, !10}
!16 = !{!17, !17, i64 0}
!17 = !{!"vtable pointer", !8, i64 0}
!18 = !{!19, !20, i64 240}
!19 = !{!"_ZTSSt9basic_iosIcSt11char_traitsIcEE", !20, i64 216, !7, i64 224, !21, i64 225, !20, i64 232, !20, i64 240, !20, i64 248, !20, i64 256}
!20 = !{!"any pointer", !7, i64 0}
!21 = !{!"bool", !7, i64 0}
!22 = !{!23, !7, i64 56}
!23 = !{!"_ZTSSt5ctypeIcE", !20, i64 16, !21, i64 24, !20, i64 32, !20, i64 40, !20, i64 48, !7, i64 56, !7, i64 57, !7, i64 313, !7, i64 569}
!24 = !{!7, !7, i64 0}
!25 = distinct !{!25, !10}
